target datalayout = "e-m:e-p270:32:32-p271:32:32-p272:64:64-i64:64-i128:128-f80:128-n8:16:32:64-S128"
target triple = "x86_64-unknown-linux-gnu"

%struct.MemoryRegion = type { %struct.Object, i8, i8, i8, i8, i8, i8, i8, i8, i8, i8, ptr, ptr, ptr, ptr, ptr, ptr, i32, i128, i64, ptr, i64, i8, i8, i8, i8, i8, ptr, i64, i32, %union.anon, %union.anon.0, %union.anon.1, ptr, i32, ptr, ptr, i8 }
%struct.Object = type { ptr, ptr, ptr, i32, ptr }
%union.anon = type { %struct.QTailQLink }
%struct.QTailQLink = type { ptr, ptr }
%union.anon.0 = type { %struct.QTailQLink }
%union.anon.1 = type { %struct.QTailQLink }
%struct.VFIOPCIDevice = type { %struct.PCIDevice, %struct.VFIODevice, %struct.VFIOINTx, i32, ptr, i64, i32, i64, ptr, i32, ptr, ptr, i32, i32, [6 x %struct.VFIOBAR], ptr, ptr, %struct.PCIHostDeviceAddress, %struct.QemuUUID, %struct.EventNotifier, %struct.EventNotifier, ptr, i32, i32, i32, i32, i32, i32, i32, i32, i32, i32, i32, i8, i8, i8, i8, i8, i8, i8, i8, i8, i8, i8, i8, i8, i8, i32, i8, i8, ptr, %struct.Notifier }
%struct.PCIDevice = type { %struct.DeviceState, i8, i8, ptr, ptr, ptr, ptr, ptr, i32, %struct.PCIReqIDCache, [64 x i8], [7 x %struct.PCIIORegion], %struct.AddressSpace, %struct.MemoryRegion, %struct.MemoryRegion, ptr, ptr, [3 x ptr], i8, i8, i32, i8, i32, ptr, ptr, ptr, ptr, ptr, ptr, %struct.MemoryRegion, %struct.MemoryRegion, %struct.MemoryRegion, ptr, i8, i32, i8, %struct.PCIExpressDevice, ptr, ptr, i32, i8, %struct.MemoryRegion, i32, ptr, ptr, ptr, ptr, ptr, i32 }
%struct.DeviceState = type { %struct.Object, ptr, ptr, i8, i8, i64, ptr, i32, i8, ptr, %struct.NamedGPIOListHead, %struct.NamedClockListHead, %struct.BusStateHead, i32, i32, i32, %struct.ResettableState, ptr, %struct.MemReentrancyGuard }
%struct.NamedGPIOListHead = type { ptr }
%struct.NamedClockListHead = type { ptr }
%struct.BusStateHead = type { ptr }
%struct.ResettableState = type { i32, i8, i8 }
%struct.MemReentrancyGuard = type { i8 }
%struct.PCIReqIDCache = type { ptr, i32 }
%struct.PCIIORegion = type { i64, i64, i8, ptr, ptr }
%struct.AddressSpace = type { %struct.rcu_head, ptr, ptr, ptr, i32, i32, ptr, %union.anon.4, %union.anon.5 }
%struct.rcu_head = type { ptr, ptr }
%union.anon.4 = type { %struct.QTailQLink }
%union.anon.5 = type { %struct.QTailQLink }
%struct.PCIExpressDevice = type { i8, i8, i8, i16, %struct.PCIEAERLog, i16, i16, i16, %struct.PCIESriovPF, %struct.PCIESriovVF }
%struct.PCIEAERLog = type { i16, i16, ptr }
%struct.PCIESriovPF = type { i16, [7 x i8], ptr, ptr }
%struct.PCIESriovVF = type { ptr, i16 }
%struct.VFIODevice = type { %struct.anon.6, %struct.anon.7, %struct.anon.8, ptr, ptr, ptr, ptr, ptr, i32, i32, i8, i8, i8, i8, i32, ptr, i32, i32, i32, ptr, ptr, i32, i8, i8 }
%struct.anon.6 = type { ptr, ptr }
%struct.anon.7 = type { ptr, ptr }
%struct.anon.8 = type { ptr, ptr }
%struct.VFIOINTx = type { i8, i8, i8, %struct.EventNotifier, %struct.EventNotifier, %struct.PCIINTxRoute, i32, ptr }
%struct.PCIINTxRoute = type { i32, i32 }
%struct.VFIOBAR = type { %struct.VFIORegion, ptr, i64, i8, i8, i8, %struct.anon.9 }
%struct.VFIORegion = type { ptr, i64, ptr, i64, i32, i32, ptr, i8 }
%struct.anon.9 = type { ptr }
%struct.PCIHostDeviceAddress = type { i32, i32, i32, i32 }
%struct.QemuUUID = type { %union.anon.10 }
%union.anon.10 = type { %struct.anon.11 }
%struct.anon.11 = type { i32, i16, i16, i8, i8, [6 x i8] }
%struct.EventNotifier = type { i32, i32, i8 }
%struct.Notifier = type { ptr, %struct.anon.12 }
%struct.anon.12 = type { ptr, ptr }

@.str.22 = private unnamed_addr constant [9 x i8] c"vfio-pci\00", align 1
@.str.23 = private unnamed_addr constant [22 x i8] c"../qemu/hw/vfio/pci.h\00", align 1
@__func__.VFIO_PCI = private unnamed_addr constant [9 x i8] c"VFIO_PCI\00", align 1
@.str.63 = private unnamed_addr constant [11 x i8] c"pci-device\00", align 1
@.str.67 = private unnamed_addr constant [10 x i8] c"bootindex\00", align 1
@.str.68 = private unnamed_addr constant [106 x i8] c"/home/dtcxzyw/WorkSpace/Projects/compilers/llvm-opt-benchmark/bench/qemu/qemu/include/hw/pci/pci_device.h\00", align 1
@__func__.PCI_DEVICE = private unnamed_addr constant [11 x i8] c"PCI_DEVICE\00", align 1

; Function Attrs: nounwind sspstrong uwtable
define internal ptr @VFIO_PCI(ptr noundef %obj) #0 {
entry:
  %obj.addr = alloca ptr, align 8
  store ptr %obj, ptr %obj.addr, align 8
  %0 = load ptr, ptr %obj.addr, align 8
  %call = call ptr @object_dynamic_cast_assert(ptr noundef %0, ptr noundef @.str.22, ptr noundef @.str.23, i32 noundef 120, ptr noundef @__func__.VFIO_PCI)
  ret ptr %call
}

; Function Attrs: nounwind sspstrong uwtable
define internal ptr @PCI_DEVICE(ptr noundef %obj) #0 {
entry:
  %obj.addr = alloca ptr, align 8
  store ptr %obj, ptr %obj.addr, align 8
  %0 = load ptr, ptr %obj.addr, align 8
  %call = call ptr @object_dynamic_cast_assert(ptr noundef %0, ptr noundef @.str.63, ptr noundef @.str.68, i32 noundef 10, ptr noundef @__func__.PCI_DEVICE)
  ret ptr %call
}

; Function Attrs: nounwind sspstrong uwtable
define internal void @vfio_instance_init(ptr noundef %obj) #0 {
entry:
  %obj.addr = alloca ptr, align 8
  %pci_dev = alloca ptr, align 8
  %vdev = alloca ptr, align 8
  store ptr %obj, ptr %obj.addr, align 8
  %0 = load ptr, ptr %obj.addr, align 8
  %call = call ptr @PCI_DEVICE(ptr noundef %0)
  store ptr %call, ptr %pci_dev, align 8
  %1 = load ptr, ptr %obj.addr, align 8
  %call1 = call ptr @VFIO_PCI(ptr noundef %1)
  store ptr %call1, ptr %vdev, align 8
  %2 = load ptr, ptr %obj.addr, align 8
  %3 = load ptr, ptr %vdev, align 8
  %bootindex = getelementptr inbounds %struct.VFIOPCIDevice, ptr %3, i32 0, i32 30
  %4 = load ptr, ptr %pci_dev, align 8
  %qdev = getelementptr inbounds %struct.PCIDevice, ptr %4, i32 0, i32 0
  call void @device_add_bootindex_property(ptr noundef %2, ptr noundef %bootindex, ptr noundef @.str.67, ptr noundef null, ptr noundef %qdev)
  %5 = load ptr, ptr %vdev, align 8
  %host = getelementptr inbounds %struct.VFIOPCIDevice, ptr %5, i32 0, i32 17
  %domain = getelementptr inbounds %struct.PCIHostDeviceAddress, ptr %host, i32 0, i32 0
  store i32 -1, ptr %domain, align 8
  %6 = load ptr, ptr %vdev, align 8
  %host2 = getelementptr inbounds %struct.VFIOPCIDevice, ptr %6, i32 0, i32 17
  %bus = getelementptr inbounds %struct.PCIHostDeviceAddress, ptr %host2, i32 0, i32 1
  store i32 -1, ptr %bus, align 4
  %7 = load ptr, ptr %vdev, align 8
  %host3 = getelementptr inbounds %struct.VFIOPCIDevice, ptr %7, i32 0, i32 17
  %slot = getelementptr inbounds %struct.PCIHostDeviceAddress, ptr %host3, i32 0, i32 2
  store i32 -1, ptr %slot, align 8
  %8 = load ptr, ptr %vdev, align 8
  %host4 = getelementptr inbounds %struct.VFIOPCIDevice, ptr %8, i32 0, i32 17
  %function = getelementptr inbounds %struct.PCIHostDeviceAddress, ptr %host4, i32 0, i32 3
  store i32 -1, ptr %function, align 4
  %9 = load ptr, ptr %vdev, align 8
  %nv_gpudirect_clique = getelementptr inbounds %struct.VFIOPCIDevice, ptr %9, i32 0, i32 34
  store i8 -1, ptr %nv_gpudirect_clique, align 1
  %10 = load ptr, ptr %pci_dev, align 8
  %cap_present = getelementptr inbounds %struct.PCIDevice, ptr %10, i32 0, i32 20
  %11 = load i32, ptr %cap_present, align 4
  %or = or i32 %11, 4
  store i32 %or, ptr %cap_present, align 4
  ret void
}