; Function Attrs: nounwind sspstrong uwtable
define internal void @vfio_instance_init(ptr noundef %obj) #0 {
entry:
  %call.i = tail call ptr @object_dynamic_cast_assert(ptr noundef %obj, ptr noundef nonnull @.str.63, ptr noundef nonnull @.str.68, i32 noundef 10, ptr noundef nonnull @__func__.PCI_DEVICE) #23
  %call.i9 = tail call ptr @object_dynamic_cast_assert(ptr noundef %obj, ptr noundef nonnull @.str.22, ptr noundef nonnull @.str.23, i32 noundef 120, ptr noundef nonnull @__func__.VFIO_PCI) #23
  %bootindex = getelementptr inbounds nuw i8, ptr %call.i9, i64 3528
  tail call void @device_add_bootindex_property(ptr noundef %obj, ptr noundef nonnull %bootindex, ptr noundef nonnull @.str.67, ptr noundef null, ptr noundef %call.i) #23
  %host = getelementptr inbounds nuw i8, ptr %call.i9, i64 3432
  %nv_gpudirect_clique = getelementptr inbounds nuw i8, ptr %call.i9, i64 3541
  store i8 -1, ptr %nv_gpudirect_clique, align 1
  %cap_present = getelementptr inbounds nuw i8, ptr %call.i, i64 1260
  tail call void @llvm.memset.p0.i64(ptr noundef nonnull align 8 dereferenceable(16) %host, i8 -1, i64 16, i1 false)
  %0 = load i32, ptr %cap_present, align 4
  %or = or i32 %0, 4
  store i32 %or, ptr %cap_present, align 4
  ret void
}